; Function Attrs: mustprogress uwtable
define void @_ZN12colvarmodule10atom_group23do_feature_side_effectsEi(ptr noundef nonnull align 8 dereferenceable(1440) %0, i32 noundef %1) unnamed_addr #2 align 2 {
  %3 = alloca %"class.colvarmodule::rvector", align 8
  %cond = icmp eq i32 %1, 6
  br i1 %cond, label %4, label %26

4:                                                ; preds = %2
  %5 = getelementptr inbounds i8, ptr %0, i64 368
  %6 = load ptr, ptr %5, align 8
  %7 = getelementptr inbounds i8, ptr %6, i64 33
  %8 = load i8, ptr %7, align 1
  %9 = trunc i8 %8 to i1
  br i1 %9, label %14, label %10

10:                                               ; preds = %4
  %11 = getelementptr inbounds i8, ptr %6, i64 97
  %12 = load i8, ptr %11, align 1
  %13 = trunc i8 %12 to i1
  br i1 %13, label %14, label %26

14:                                               ; preds = %10, %4
  %15 = getelementptr inbounds i8, ptr %0, i64 1264
  %16 = load ptr, ptr %15, align 8
  %.not = icmp eq ptr %16, null
  %spec.select = select i1 %.not, ptr %0, ptr %16
  %17 = getelementptr inbounds i8, ptr %spec.select, i64 1416
  %18 = getelementptr inbounds i8, ptr %spec.select, i64 504
  %19 = getelementptr inbounds i8, ptr %spec.select, i64 512
  %20 = load ptr, ptr %19, align 8
  %21 = load ptr, ptr %18, align 8
  %22 = ptrtoint ptr %20 to i64
  %23 = ptrtoint ptr %21 to i64
  %24 = sub i64 %22, %23
  %25 = sdiv exact i64 %24, 120
  call void @llvm.memset.p0.i64(ptr noundef nonnull align 8 dereferenceable(24) %3, i8 0, i64 24, i1 false)
  call void @_ZNSt6vectorIN12colvarmodule7rvectorESaIS1_EE14_M_fill_assignEmRKS1_(ptr noundef nonnull align 8 dereferenceable(24) %17, i64 noundef %25, ptr noundef nonnull align 8 dereferenceable(24) %3)
  br label %26

26:                                               ; preds = %10, %14, %2
  ret void
}